target datalayout = "e-m:e-p270:32:32-p271:32:32-p272:64:64-i64:64-i128:128-f80:128-n8:16:32:64-S128"
target triple = "x86_64-pc-linux-gnu"

%struct.MEMO = type { i64, i64, i64, i64, %union.anon.1 }
%union.anon.1 = type { i64 }

; Function Attrs: inlinehint nounwind sspstrong willreturn memory(none) uwtable
define internal zeroext i1 @RB_NIL_P(i64 noundef %0) #6 {
  %2 = alloca i64, align 8
  store i64 %0, ptr %2, align 8, !tbaa !14
  %3 = load i64, ptr %2, align 8, !tbaa !14
  %4 = icmp eq i64 %3, 4
  ret i1 %4
}

; Function Attrs: inlinehint nounwind sspstrong uwtable
define internal ptr @MEMO_NEW(i64 noundef %0, i64 noundef %1, i64 noundef %2) #3 {
  %4 = alloca i64, align 8
  %5 = alloca i64, align 8
  %6 = alloca i64, align 8
  %7 = alloca ptr, align 8
  store i64 %0, ptr %4, align 8, !tbaa !14
  store i64 %1, ptr %5, align 8, !tbaa !14
  store i64 %2, ptr %6, align 8, !tbaa !14
  call void @llvm.lifetime.start.p0(i64 8, ptr %7) #22
  %8 = call i64 @rb_imemo_new(i32 noundef 5, i64 noundef 0, i64 noundef 40)
  %9 = inttoptr i64 %8 to ptr
  store ptr %9, ptr %7, align 8, !tbaa !34
  %10 = load i64, ptr %4, align 8, !tbaa !14
  %11 = load ptr, ptr %7, align 8, !tbaa !34
  %12 = getelementptr inbounds nuw %struct.MEMO, ptr %11, i32 0, i32 2
  store i64 %10, ptr %12, align 8, !tbaa !14
  %13 = load i64, ptr %5, align 8, !tbaa !14
  %14 = load ptr, ptr %7, align 8, !tbaa !34
  %15 = getelementptr inbounds nuw %struct.MEMO, ptr %14, i32 0, i32 3
  store i64 %13, ptr %15, align 8, !tbaa !14
  %16 = load i64, ptr %6, align 8, !tbaa !14
  %17 = load ptr, ptr %7, align 8, !tbaa !34
  %18 = getelementptr inbounds nuw %struct.MEMO, ptr %17, i32 0, i32 4
  store i64 %16, ptr %18, align 8, !tbaa !31
  %19 = load ptr, ptr %7, align 8, !tbaa !34
  call void @llvm.lifetime.end.p0(i64 8, ptr %7) #22
  ret ptr %19
}

; Function Attrs: inlinehint nounwind sspstrong uwtable
define internal i32 @rb_check_arity(i32 noundef %0, i32 noundef %1, i32 noundef %2) #3 {
  %4 = alloca i32, align 4
  %5 = alloca i32, align 4
  %6 = alloca i32, align 4
  store i32 %0, ptr %4, align 4, !tbaa !7
  store i32 %1, ptr %5, align 4, !tbaa !7
  store i32 %2, ptr %6, align 4, !tbaa !7
  %7 = load i32, ptr %4, align 4, !tbaa !7
  %8 = load i32, ptr %5, align 4, !tbaa !7
  %9 = icmp slt i32 %7, %8
  br i1 %9, label %17, label %10

10:                                               ; preds = %3
  %11 = load i32, ptr %6, align 4, !tbaa !7
  %12 = icmp ne i32 %11, -1
  br i1 %12, label %13, label %21

13:                                               ; preds = %10
  %14 = load i32, ptr %4, align 4, !tbaa !7
  %15 = load i32, ptr %6, align 4, !tbaa !7
  %16 = icmp sgt i32 %14, %15
  br i1 %16, label %17, label %21

17:                                               ; preds = %13, %3
  %18 = load i32, ptr %4, align 4, !tbaa !7
  %19 = load i32, ptr %5, align 4, !tbaa !7
  %20 = load i32, ptr %6, align 4, !tbaa !7
  call void @rb_error_arity(i32 noundef %18, i32 noundef %19, i32 noundef %20) #23
  unreachable

21:                                               ; preds = %13, %10
  %22 = load i32, ptr %4, align 4, !tbaa !7
  ret i32 %22
}

; Function Attrs: nounwind sspstrong uwtable
define internal i64 @enum_find(i32 noundef %0, ptr noundef %1, i64 noundef %2) #0 {
  %4 = alloca i64, align 8
  %5 = alloca i32, align 4
  %6 = alloca ptr, align 8
  %7 = alloca i64, align 8
  %8 = alloca ptr, align 8
  %9 = alloca i64, align 8
  %10 = alloca i64, align 8
  %11 = alloca i32, align 4
  store i32 %0, ptr %5, align 4, !tbaa !7
  store ptr %1, ptr %6, align 8, !tbaa !11
  store i64 %2, ptr %7, align 8, !tbaa !14
  call void @llvm.lifetime.start.p0(i64 8, ptr %8) #22
  call void @llvm.lifetime.start.p0(i64 8, ptr %9) #22
  %12 = load i32, ptr %5, align 4, !tbaa !7
  %13 = call i32 @rb_check_arity(i32 noundef %12, i32 noundef 0, i32 noundef 1)
  %14 = icmp ne i32 %13, 0
  br i1 %14, label %15, label %19

15:                                               ; preds = %3
  %16 = load ptr, ptr %6, align 8, !tbaa !11
  %17 = getelementptr i64, ptr %16, i64 0
  %18 = load i64, ptr %17, align 8, !tbaa !14
  br label %20

19:                                               ; preds = %3
  br label %20

20:                                               ; preds = %19, %15
  %21 = phi i64 [ %18, %15 ], [ 4, %19 ]
  store i64 %21, ptr %9, align 8, !tbaa !14
  br label %22

22:                                               ; preds = %20
  %23 = call i32 @rb_block_given_p()
  %24 = icmp ne i32 %23, 0
  br i1 %24, label %33, label %25

25:                                               ; preds = %22
  %26 = load i64, ptr %7, align 8, !tbaa !14
  %27 = call i64 @rb_frame_this_func()
  %28 = call i64 @rb_id2sym(i64 noundef %27)
  store i64 %28, ptr %10, align 8, !tbaa !14
  %29 = load i64, ptr %10, align 8, !tbaa !14
  %30 = load i32, ptr %5, align 4, !tbaa !7
  %31 = load ptr, ptr %6, align 8, !tbaa !11
  %32 = call i64 @rb_enumeratorize_with_size(i64 noundef %26, i64 noundef %29, i32 noundef %30, ptr noundef %31, ptr noundef null)
  store i64 %32, ptr %4, align 8
  store i32 1, ptr %11, align 4
  br label %65

33:                                               ; preds = %22
  br label %34

34:                                               ; preds = %33
  br label %35

35:                                               ; preds = %34
  %36 = call ptr @MEMO_NEW(i64 noundef 36, i64 noundef 0, i64 noundef 0)
  store ptr %36, ptr %8, align 8, !tbaa !34
  %37 = call i32 @rb_block_pair_yield_optimizable()
  %38 = icmp ne i32 %37, 0
  br i1 %38, label %39, label %44

39:                                               ; preds = %35
  %40 = load i64, ptr %7, align 8, !tbaa !14
  %41 = load ptr, ptr %8, align 8, !tbaa !34
  %42 = ptrtoint ptr %41 to i64
  %43 = call i64 @rb_block_call2(i64 noundef %40, i64 noundef 3073, i32 noundef 0, ptr noundef null, ptr noundef @find_i_fast, i64 noundef %42, i64 noundef 2)
  br label %49

44:                                               ; preds = %35
  %45 = load i64, ptr %7, align 8, !tbaa !14
  %46 = load ptr, ptr %8, align 8, !tbaa !34
  %47 = ptrtoint ptr %46 to i64
  %48 = call i64 @rb_block_call2(i64 noundef %45, i64 noundef 3073, i32 noundef 0, ptr noundef null, ptr noundef @find_i, i64 noundef %47, i64 noundef 2)
  br label %49

49:                                               ; preds = %44, %39
  %50 = load ptr, ptr %8, align 8, !tbaa !34
  %51 = getelementptr inbounds nuw %struct.MEMO, ptr %50, i32 0, i32 4
  %52 = load i64, ptr %51, align 8, !tbaa !31
  %53 = icmp ne i64 %52, 0
  br i1 %53, label %54, label %58

54:                                               ; preds = %49
  %55 = load ptr, ptr %8, align 8, !tbaa !34
  %56 = getelementptr inbounds nuw %struct.MEMO, ptr %55, i32 0, i32 2
  %57 = load i64, ptr %56, align 8, !tbaa !46
  store i64 %57, ptr %4, align 8
  store i32 1, ptr %11, align 4
  br label %65

58:                                               ; preds = %49
  %59 = load i64, ptr %9, align 8, !tbaa !14
  %60 = call zeroext i1 @RB_NIL_P(i64 noundef %59) #25
  br i1 %60, label %64, label %61

61:                                               ; preds = %58
  %62 = load i64, ptr %9, align 8, !tbaa !14
  %63 = call i64 @rb_funcallv(i64 noundef %62, i64 noundef 3457, i32 noundef 0, ptr noundef null)
  store i64 %63, ptr %4, align 8
  store i32 1, ptr %11, align 4
  br label %65

64:                                               ; preds = %58
  store i64 4, ptr %4, align 8
  store i32 1, ptr %11, align 4
  br label %65

65:                                               ; preds = %64, %61, %54, %25
  call void @llvm.lifetime.end.p0(i64 8, ptr %9) #22
  call void @llvm.lifetime.end.p0(i64 8, ptr %8) #22
  %66 = load i64, ptr %4, align 8
  ret i64 %66
}