; Function Attrs: nounwind sspstrong uwtable
define internal i64 @enum_find(i32 noundef %0, ptr noundef %1, i64 noundef %2) #0 {
  %or.cond.i = icmp ugt i32 %0, 1
  br i1 %or.cond.i, label %4, label %rb_check_arity.exit

4:                                                ; preds = %3
  tail call void @rb_error_arity(i32 noundef %0, i32 noundef 0, i32 noundef 1) #15
  unreachable

rb_check_arity.exit:                              ; preds = %3
  %.not = icmp eq i32 %0, 0
  br i1 %.not, label %7, label %5

5:                                                ; preds = %rb_check_arity.exit
  %6 = load i64, ptr %1, align 8, !tbaa !7
  br label %7

7:                                                ; preds = %rb_check_arity.exit, %5
  %8 = phi i64 [ %6, %5 ], [ 4, %rb_check_arity.exit ]
  %9 = tail call i32 @rb_block_given_p() #14
  %.not14 = icmp eq i32 %9, 0
  br i1 %.not14, label %10, label %14

10:                                               ; preds = %7
  %11 = tail call i64 @rb_frame_this_func() #14
  %12 = tail call i64 @rb_id2sym(i64 noundef %11) #14
  %13 = tail call i64 @rb_enumeratorize_with_size(i64 noundef %2, i64 noundef %12, i32 noundef %0, ptr noundef %1, ptr noundef null) #14
  br label %29

14:                                               ; preds = %7
  %15 = tail call i64 @rb_imemo_new(i32 noundef 5, i64 noundef 0, i64 noundef 40) #14
  %16 = inttoptr i64 %15 to ptr
  %17 = getelementptr inbounds nuw i8, ptr %16, i64 16
  store i64 36, ptr %17, align 8, !tbaa !7
  %18 = getelementptr inbounds nuw i8, ptr %16, i64 24
  %19 = getelementptr inbounds nuw i8, ptr %16, i64 32
  tail call void @llvm.memset.p0.i64(ptr noundef nonnull align 8 dereferenceable(16) %18, i8 0, i64 16, i1 false)
  %20 = tail call i32 @rb_block_pair_yield_optimizable() #14
  %.not15 = icmp eq i32 %20, 0
  %find_i.find_i_fast = select i1 %.not15, ptr @find_i, ptr @find_i_fast
  %21 = tail call i64 @rb_block_call2(i64 noundef %2, i64 noundef 3073, i32 noundef 0, ptr noundef null, ptr noundef nonnull %find_i.find_i_fast, i64 noundef %15, i64 noundef 2) #14
  %22 = load i64, ptr %19, align 8, !tbaa !22
  %.not16 = icmp eq i64 %22, 0
  br i1 %.not16, label %25, label %23

23:                                               ; preds = %14
  %24 = load i64, ptr %17, align 8, !tbaa !60
  br label %29

25:                                               ; preds = %14
  %26 = icmp eq i64 %8, 4
  br i1 %26, label %29, label %27

27:                                               ; preds = %25
  %28 = tail call i64 @rb_funcallv(i64 noundef %8, i64 noundef 3457, i32 noundef 0, ptr noundef null) #14
  br label %29

29:                                               ; preds = %25, %27, %23, %10
  %.0 = phi i64 [ %24, %23 ], [ %28, %27 ], [ %13, %10 ], [ 4, %25 ]
  ret i64 %.0
}